; ModuleID = '61/58.c'
source_filename = "61/58.c"
target datalayout = "e-m:e-p270:32:32-p271:32:32-p272:64:64-i64:64-f80:128-n8:16:32:64-S128"
target triple = "x86_64-pc-linux-gnu"

@.str = private unnamed_addr constant [3 x i8] c"%d\00", align 1
@.str.1 = private unnamed_addr constant [2 x i8] c"1\00", align 1
@.str.2 = private unnamed_addr constant [4 x i8] c"%d\0A\00", align 1

; Function Attrs: noinline nounwind uwtable
define dso_local i32 @main() #0 {
  %1 = alloca i32, align 4
  %2 = alloca i32, align 4
  %3 = alloca i32, align 4
  %4 = alloca i32, align 4
  %5 = alloca i32, align 4
  %6 = alloca i32, align 4
  %7 = alloca [1000 x i32], align 16
  %8 = alloca [1000 x i32], align 16
  store i32 0, i32* %1, align 4
  %9 = call i32 (i8*, ...) @__isoc99_scanf(i8* getelementptr inbounds ([3 x i8], [3 x i8]* @.str, i64 0, i64 0), i32* %2)
  store i32 0, i32* %5, align 4
  br label %10

10:                                               ; preds = %19, %0
  %11 = load i32, i32* %5, align 4
  %12 = load i32, i32* %2, align 4
  %13 = icmp slt i32 %11, %12
  br i1 %13, label %14, label %22

14:                                               ; preds = %10
  %15 = load i32, i32* %5, align 4
  %16 = sext i32 %15 to i64
  %17 = getelementptr inbounds [1000 x i32], [1000 x i32]* %7, i64 0, i64 %16
  %18 = call i32 (i8*, ...) @__isoc99_scanf(i8* getelementptr inbounds ([3 x i8], [3 x i8]* @.str, i64 0, i64 0), i32* %17)
  br label %19

19:                                               ; preds = %14
  %20 = load i32, i32* %5, align 4
  %21 = add nsw i32 %20, 1
  store i32 %21, i32* %5, align 4
  br label %10

22:                                               ; preds = %10
  store i32 0, i32* %5, align 4
  br label %23

23:                                               ; preds = %71, %22
  %24 = load i32, i32* %5, align 4
  %25 = load i32, i32* %2, align 4
  %26 = icmp slt i32 %24, %25
  br i1 %26, label %27, label %74

27:                                               ; preds = %23
  %28 = getelementptr inbounds [1000 x i32], [1000 x i32]* %8, i64 0, i64 0
  store i32 1, i32* %28, align 16
  %29 = getelementptr inbounds [1000 x i32], [1000 x i32]* %8, i64 0, i64 1
  store i32 1, i32* %29, align 4
  %30 = load i32, i32* %5, align 4
  %31 = sext i32 %30 to i64
  %32 = getelementptr inbounds [1000 x i32], [1000 x i32]* %7, i64 0, i64 %31
  %33 = load i32, i32* %32, align 4
  %34 = icmp sle i32 %33, 2
  br i1 %34, label %35, label %37

35:                                               ; preds = %27
  %36 = call i32 (i8*, ...) @printf(i8* getelementptr inbounds ([2 x i8], [2 x i8]* @.str.1, i64 0, i64 0))
  br label %70

37:                                               ; preds = %27
  store i32 2, i32* %6, align 4
  br label %38

38:                                               ; preds = %60, %37
  %39 = load i32, i32* %6, align 4
  %40 = load i32, i32* %5, align 4
  %41 = sext i32 %40 to i64
  %42 = getelementptr inbounds [1000 x i32], [1000 x i32]* %7, i64 0, i64 %41
  %43 = load i32, i32* %42, align 4
  %44 = icmp slt i32 %39, %43
  br i1 %44, label %45, label %63

45:                                               ; preds = %38
  %46 = load i32, i32* %6, align 4
  %47 = sub nsw i32 %46, 1
  %48 = sext i32 %47 to i64
  %49 = getelementptr inbounds [1000 x i32], [1000 x i32]* %8, i64 0, i64 %48
  %50 = load i32, i32* %49, align 4
  %51 = load i32, i32* %6, align 4
  %52 = sub nsw i32 %51, 2
  %53 = sext i32 %52 to i64
  %54 = getelementptr inbounds [1000 x i32], [1000 x i32]* %8, i64 0, i64 %53
  %55 = load i32, i32* %54, align 4
  %56 = add nsw i32 %50, %55
  %57 = load i32, i32* %6, align 4
  %58 = sext i32 %57 to i64
  %59 = getelementptr inbounds [1000 x i32], [1000 x i32]* %8, i64 0, i64 %58
  store i32 %56, i32* %59, align 4
  br label %60

60:                                               ; preds = %45
  %61 = load i32, i32* %6, align 4
  %62 = add nsw i32 %61, 1
  store i32 %62, i32* %6, align 4
  br label %38

63:                                               ; preds = %38
  %64 = load i32, i32* %6, align 4
  %65 = sub nsw i32 %64, 1
  %66 = sext i32 %65 to i64
  %67 = getelementptr inbounds [1000 x i32], [1000 x i32]* %8, i64 0, i64 %66
  %68 = load i32, i32* %67, align 4
  %69 = call i32 (i8*, ...) @printf(i8* getelementptr inbounds ([4 x i8], [4 x i8]* @.str.2, i64 0, i64 0), i32 %68)
  br label %70

70:                                               ; preds = %63, %35
  br label %71

71:                                               ; preds = %70
  %72 = load i32, i32* %5, align 4
  %73 = add nsw i32 %72, 1
  store i32 %73, i32* %5, align 4
  br label %23

74:                                               ; preds = %23
  %75 = load i32, i32* %1, align 4
  ret i32 %75
}

declare dso_local i32 @__isoc99_scanf(i8*, ...) #1

declare dso_local i32 @printf(i8*, ...) #1


!llvm.module.flags = !{!0}
!llvm.ident = !{!1}

!0 = !{i32 1, !"wchar_size", i32 4}
!1 = !{!"clang version 10.0.0-4ubuntu1 "}
